; ModuleID = '61/656.c'
source_filename = "61/656.c"
target datalayout = "e-m:e-p270:32:32-p271:32:32-p272:64:64-i64:64-f80:128-n8:16:32:64-S128"
target triple = "x86_64-pc-linux-gnu"

@.str = private unnamed_addr constant [3 x i8] c"%d\00", align 1
@.str.1 = private unnamed_addr constant [4 x i8] c"%d\0A\00", align 1

; Function Attrs: noinline nounwind uwtable
define dso_local i32 @main() #0 {
  %1 = alloca i32, align 4
  %2 = alloca i32, align 4
  %3 = alloca i32, align 4
  %4 = alloca i32, align 4
  %5 = alloca i32, align 4
  store i32 0, i32* %1, align 4
  %6 = call i32 (i8*, ...) @__isoc99_scanf(i8* getelementptr inbounds ([3 x i8], [3 x i8]* @.str, i64 0, i64 0), i32* %2)
  store i32 0, i32* %3, align 4
  br label %7

7:                                                ; preds = %17, %0
  %8 = load i32, i32* %3, align 4
  %9 = load i32, i32* %2, align 4
  %10 = icmp slt i32 %8, %9
  br i1 %10, label %11, label %20

11:                                               ; preds = %7
  %12 = call i32 (i8*, ...) @__isoc99_scanf(i8* getelementptr inbounds ([3 x i8], [3 x i8]* @.str, i64 0, i64 0), i32* %4)
  %13 = load i32, i32* %4, align 4
  %14 = call i32 @bo(i32 %13)
  store i32 %14, i32* %5, align 4
  %15 = load i32, i32* %5, align 4
  %16 = call i32 (i8*, ...) @printf(i8* getelementptr inbounds ([4 x i8], [4 x i8]* @.str.1, i64 0, i64 0), i32 %15)
  br label %17

17:                                               ; preds = %11
  %18 = load i32, i32* %3, align 4
  %19 = add nsw i32 %18, 1
  store i32 %19, i32* %3, align 4
  br label %7

20:                                               ; preds = %7
  ret i32 0
}

declare dso_local i32 @__isoc99_scanf(i8*, ...) #1

; Function Attrs: noinline nounwind uwtable
define dso_local i32 @bo(i32 %0) #0 {
  %2 = alloca i32, align 4
  %3 = alloca double, align 8
  %4 = alloca double, align 8
  %5 = alloca double, align 8
  %6 = alloca double, align 8
  %7 = alloca double, align 8
  %8 = alloca double, align 8
  store i32 %0, i32* %2, align 4
  %9 = call double @sqrt(double 5.000000e+00) #3
  store double %9, double* %3, align 8
  %10 = load double, double* %3, align 8
  %11 = fadd double 1.000000e+00, %10
  %12 = fdiv double %11, 2.000000e+00
  store double %12, double* %4, align 8
  %13 = load double, double* %3, align 8
  %14 = fsub double 1.000000e+00, %13
  %15 = fdiv double %14, 2.000000e+00
  store double %15, double* %5, align 8
  %16 = load double, double* %4, align 8
  %17 = load i32, i32* %2, align 4
  %18 = sitofp i32 %17 to double
  %19 = call double @pow(double %16, double %18) #3
  store double %19, double* %6, align 8
  %20 = load double, double* %5, align 8
  %21 = load i32, i32* %2, align 4
  %22 = sitofp i32 %21 to double
  %23 = call double @pow(double %20, double %22) #3
  store double %23, double* %7, align 8
  %24 = load double, double* %6, align 8
  %25 = load double, double* %7, align 8
  %26 = fsub double %24, %25
  %27 = load double, double* %3, align 8
  %28 = fdiv double %26, %27
  store double %28, double* %8, align 8
  %29 = load double, double* %8, align 8
  %30 = fptosi double %29 to i32
  ret i32 %30
}

declare dso_local i32 @printf(i8*, ...) #1

; Function Attrs: nounwind
declare dso_local double @sqrt(double) #2

; Function Attrs: nounwind
declare dso_local double @pow(double, double) #2


!llvm.module.flags = !{!0}
!llvm.ident = !{!1}

!0 = !{i32 1, !"wchar_size", i32 4}
!1 = !{!"clang version 10.0.0-4ubuntu1 "}
